target datalayout = "e-m:e-p270:32:32-p271:32:32-p272:64:64-i64:64-i128:128-f80:128-n8:16:32:64-S128"
target triple = "x86_64-pc-linux-gnu"

%struct.ossl_param_st = type { ptr, i32, ptr, i64, i64 }

@.str.9 = private unnamed_addr constant [3 x i8] c"p1\00", align 1
@.str.11 = private unnamed_addr constant [3 x i8] c"p3\00", align 1
@.str.13 = private unnamed_addr constant [3 x i8] c"p4\00", align 1
@.str.15 = private unnamed_addr constant [3 x i8] c"p5\00", align 1
@.str.18 = private unnamed_addr constant [3 x i8] c"p6\00", align 1
@app_p1 = internal global i32 0, align 4
@bignumbin = internal global [4096 x i8] zeroinitializer, align 16
@app_p4 = internal global [256 x i8] zeroinitializer, align 16
@app_p5 = internal global [256 x i8] zeroinitializer, align 16
@app_p6 = internal global ptr null, align 8
@.str.21 = private unnamed_addr constant [4 x i8] c"foo\00", align 1
@foo = internal global [1 x i8] zeroinitializer, align 1
@construct_api_params.params = internal global [10 x %struct.ossl_param_st] zeroinitializer, align 16

; Function Attrs: nounwind uwtable
define internal ptr @construct_api_params() #0 {
  %1 = alloca i64, align 8
  %2 = alloca %struct.ossl_param_st, align 8
  %3 = alloca %struct.ossl_param_st, align 8
  %4 = alloca %struct.ossl_param_st, align 8
  %5 = alloca %struct.ossl_param_st, align 8
  %6 = alloca %struct.ossl_param_st, align 8
  %7 = alloca %struct.ossl_param_st, align 8
  %8 = alloca %struct.ossl_param_st, align 8
  call void @llvm.lifetime.start.p0(i64 8, ptr %1) #7
  store i64 0, ptr %1, align 8, !tbaa !47
  %9 = load i64, ptr %1, align 8, !tbaa !47
  %10 = add i64 %9, 1
  store i64 %10, ptr %1, align 8, !tbaa !47
  %11 = getelementptr inbounds nuw [10 x %struct.ossl_param_st], ptr @construct_api_params.params, i64 0, i64 %9
  call void @llvm.lifetime.start.p0(i64 40, ptr %2) #7
  call void @OSSL_PARAM_construct_int(ptr dead_on_unwind writable sret(%struct.ossl_param_st) align 8 %2, ptr noundef @.str.9, ptr noundef @app_p1)
  call void @llvm.memcpy.p0.p0.i64(ptr align 8 %11, ptr align 8 %2, i64 40, i1 false), !tbaa.struct !53
  call void @llvm.lifetime.end.p0(i64 40, ptr %2) #7
  %12 = load i64, ptr %1, align 8, !tbaa !47
  %13 = add i64 %12, 1
  store i64 %13, ptr %1, align 8, !tbaa !47
  %14 = getelementptr inbounds nuw [10 x %struct.ossl_param_st], ptr @construct_api_params.params, i64 0, i64 %12
  call void @llvm.lifetime.start.p0(i64 40, ptr %3) #7
  call void @OSSL_PARAM_construct_BN(ptr dead_on_unwind writable sret(%struct.ossl_param_st) align 8 %3, ptr noundef @.str.11, ptr noundef @bignumbin, i64 noundef 4096)
  call void @llvm.memcpy.p0.p0.i64(ptr align 8 %14, ptr align 8 %3, i64 40, i1 false), !tbaa.struct !53
  call void @llvm.lifetime.end.p0(i64 40, ptr %3) #7
  %15 = load i64, ptr %1, align 8, !tbaa !47
  %16 = add i64 %15, 1
  store i64 %16, ptr %1, align 8, !tbaa !47
  %17 = getelementptr inbounds nuw [10 x %struct.ossl_param_st], ptr @construct_api_params.params, i64 0, i64 %15
  call void @llvm.lifetime.start.p0(i64 40, ptr %4) #7
  call void @OSSL_PARAM_construct_utf8_string(ptr dead_on_unwind writable sret(%struct.ossl_param_st) align 8 %4, ptr noundef @.str.13, ptr noundef @app_p4, i64 noundef 256)
  call void @llvm.memcpy.p0.p0.i64(ptr align 8 %17, ptr align 8 %4, i64 40, i1 false), !tbaa.struct !53
  call void @llvm.lifetime.end.p0(i64 40, ptr %4) #7
  %18 = load i64, ptr %1, align 8, !tbaa !47
  %19 = add i64 %18, 1
  store i64 %19, ptr %1, align 8, !tbaa !47
  %20 = getelementptr inbounds nuw [10 x %struct.ossl_param_st], ptr @construct_api_params.params, i64 0, i64 %18
  call void @llvm.lifetime.start.p0(i64 40, ptr %5) #7
  call void @OSSL_PARAM_construct_utf8_string(ptr dead_on_unwind writable sret(%struct.ossl_param_st) align 8 %5, ptr noundef @.str.15, ptr noundef @app_p5, i64 noundef 256)
  call void @llvm.memcpy.p0.p0.i64(ptr align 8 %20, ptr align 8 %5, i64 40, i1 false), !tbaa.struct !53
  call void @llvm.lifetime.end.p0(i64 40, ptr %5) #7
  %21 = load i64, ptr %1, align 8, !tbaa !47
  %22 = add i64 %21, 1
  store i64 %22, ptr %1, align 8, !tbaa !47
  %23 = getelementptr inbounds nuw [10 x %struct.ossl_param_st], ptr @construct_api_params.params, i64 0, i64 %21
  call void @llvm.lifetime.start.p0(i64 40, ptr %6) #7
  call void @OSSL_PARAM_construct_utf8_ptr(ptr dead_on_unwind writable sret(%struct.ossl_param_st) align 8 %6, ptr noundef @.str.18, ptr noundef @app_p6, i64 noundef 7)
  call void @llvm.memcpy.p0.p0.i64(ptr align 8 %23, ptr align 8 %6, i64 40, i1 false), !tbaa.struct !53
  call void @llvm.lifetime.end.p0(i64 40, ptr %6) #7
  %24 = load i64, ptr %1, align 8, !tbaa !47
  %25 = add i64 %24, 1
  store i64 %25, ptr %1, align 8, !tbaa !47
  %26 = getelementptr inbounds nuw [10 x %struct.ossl_param_st], ptr @construct_api_params.params, i64 0, i64 %24
  call void @llvm.lifetime.start.p0(i64 40, ptr %7) #7
  call void @OSSL_PARAM_construct_octet_string(ptr dead_on_unwind writable sret(%struct.ossl_param_st) align 8 %7, ptr noundef @.str.21, ptr noundef @foo, i64 noundef 1)
  call void @llvm.memcpy.p0.p0.i64(ptr align 8 %26, ptr align 8 %7, i64 40, i1 false), !tbaa.struct !53
  call void @llvm.lifetime.end.p0(i64 40, ptr %7) #7
  %27 = load i64, ptr %1, align 8, !tbaa !47
  %28 = add i64 %27, 1
  store i64 %28, ptr %1, align 8, !tbaa !47
  %29 = getelementptr inbounds nuw [10 x %struct.ossl_param_st], ptr @construct_api_params.params, i64 0, i64 %27
  call void @llvm.lifetime.start.p0(i64 40, ptr %8) #7
  call void @OSSL_PARAM_construct_end(ptr dead_on_unwind writable sret(%struct.ossl_param_st) align 8 %8)
  call void @llvm.memcpy.p0.p0.i64(ptr align 8 %29, ptr align 8 %8, i64 40, i1 false), !tbaa.struct !53
  call void @llvm.lifetime.end.p0(i64 40, ptr %8) #7
  call void @llvm.lifetime.end.p0(i64 8, ptr %1) #7
  ret ptr @construct_api_params.params
}