; Function Attrs: nounwind uwtable
define internal noundef nonnull ptr @construct_api_params() #0 {
  %1 = alloca %struct.ossl_param_st, align 8
  %2 = alloca %struct.ossl_param_st, align 8
  %3 = alloca %struct.ossl_param_st, align 8
  %4 = alloca %struct.ossl_param_st, align 8
  %5 = alloca %struct.ossl_param_st, align 8
  %6 = alloca %struct.ossl_param_st, align 8
  %7 = alloca %struct.ossl_param_st, align 8
  call void @llvm.lifetime.start.p0(i64 40, ptr nonnull %1) #7
  call void @OSSL_PARAM_construct_int(ptr dead_on_unwind nonnull writable sret(%struct.ossl_param_st) align 8 %1, ptr noundef nonnull @.str.9, ptr noundef nonnull @app_p1) #7
  call void @llvm.memcpy.p0.p0.i64(ptr noundef nonnull align 16 dereferenceable(40) @construct_api_params.params, ptr noundef nonnull align 8 dereferenceable(40) %1, i64 40, i1 false), !tbaa.struct !49
  call void @llvm.lifetime.end.p0(i64 40, ptr nonnull %1) #7
  call void @llvm.lifetime.start.p0(i64 40, ptr nonnull %2) #7
  call void @OSSL_PARAM_construct_BN(ptr dead_on_unwind nonnull writable sret(%struct.ossl_param_st) align 8 %2, ptr noundef nonnull @.str.11, ptr noundef nonnull @bignumbin, i64 noundef 4096) #7
  call void @llvm.memcpy.p0.p0.i64(ptr noundef nonnull align 8 dereferenceable(40) getelementptr inbounds nuw (i8, ptr @construct_api_params.params, i64 40), ptr noundef nonnull align 8 dereferenceable(40) %2, i64 40, i1 false), !tbaa.struct !49
  call void @llvm.lifetime.end.p0(i64 40, ptr nonnull %2) #7
  call void @llvm.lifetime.start.p0(i64 40, ptr nonnull %3) #7
  call void @OSSL_PARAM_construct_utf8_string(ptr dead_on_unwind nonnull writable sret(%struct.ossl_param_st) align 8 %3, ptr noundef nonnull @.str.13, ptr noundef nonnull @app_p4, i64 noundef 256) #7
  call void @llvm.memcpy.p0.p0.i64(ptr noundef nonnull align 16 dereferenceable(40) getelementptr inbounds nuw (i8, ptr @construct_api_params.params, i64 80), ptr noundef nonnull align 8 dereferenceable(40) %3, i64 40, i1 false), !tbaa.struct !49
  call void @llvm.lifetime.end.p0(i64 40, ptr nonnull %3) #7
  call void @llvm.lifetime.start.p0(i64 40, ptr nonnull %4) #7
  call void @OSSL_PARAM_construct_utf8_string(ptr dead_on_unwind nonnull writable sret(%struct.ossl_param_st) align 8 %4, ptr noundef nonnull @.str.15, ptr noundef nonnull @app_p5, i64 noundef 256) #7
  call void @llvm.memcpy.p0.p0.i64(ptr noundef nonnull align 8 dereferenceable(40) getelementptr inbounds nuw (i8, ptr @construct_api_params.params, i64 120), ptr noundef nonnull align 8 dereferenceable(40) %4, i64 40, i1 false), !tbaa.struct !49
  call void @llvm.lifetime.end.p0(i64 40, ptr nonnull %4) #7
  call void @llvm.lifetime.start.p0(i64 40, ptr nonnull %5) #7
  call void @OSSL_PARAM_construct_utf8_ptr(ptr dead_on_unwind nonnull writable sret(%struct.ossl_param_st) align 8 %5, ptr noundef nonnull @.str.18, ptr noundef nonnull @app_p6, i64 noundef 7) #7
  call void @llvm.memcpy.p0.p0.i64(ptr noundef nonnull align 16 dereferenceable(40) getelementptr inbounds nuw (i8, ptr @construct_api_params.params, i64 160), ptr noundef nonnull align 8 dereferenceable(40) %5, i64 40, i1 false), !tbaa.struct !49
  call void @llvm.lifetime.end.p0(i64 40, ptr nonnull %5) #7
  call void @llvm.lifetime.start.p0(i64 40, ptr nonnull %6) #7
  call void @OSSL_PARAM_construct_octet_string(ptr dead_on_unwind nonnull writable sret(%struct.ossl_param_st) align 8 %6, ptr noundef nonnull @.str.21, ptr noundef nonnull @foo, i64 noundef 1) #7
  call void @llvm.memcpy.p0.p0.i64(ptr noundef nonnull align 8 dereferenceable(40) getelementptr inbounds nuw (i8, ptr @construct_api_params.params, i64 200), ptr noundef nonnull align 8 dereferenceable(40) %6, i64 40, i1 false), !tbaa.struct !49
  call void @llvm.lifetime.end.p0(i64 40, ptr nonnull %6) #7
  call void @llvm.lifetime.start.p0(i64 40, ptr nonnull %7) #7
  call void @OSSL_PARAM_construct_end(ptr dead_on_unwind nonnull writable sret(%struct.ossl_param_st) align 8 %7) #7
  call void @llvm.memcpy.p0.p0.i64(ptr noundef nonnull align 16 dereferenceable(40) getelementptr inbounds nuw (i8, ptr @construct_api_params.params, i64 240), ptr noundef nonnull align 8 dereferenceable(40) %7, i64 40, i1 false), !tbaa.struct !49
  call void @llvm.lifetime.end.p0(i64 40, ptr nonnull %7) #7
  ret ptr @construct_api_params.params
}